; Function Attrs: mustprogress nofree nounwind willreturn memory(write, argmem: none, inaccessiblemem: readwrite) uwtable
define noalias noundef ptr @Abc_ShaManStart(ptr noundef %0) local_unnamed_addr #0 {
  %2 = tail call noalias dereferenceable_or_null(48) ptr @calloc(i64 noundef 1, i64 noundef 48) #13
  %3 = getelementptr inbounds nuw i8, ptr %2, i64 8
  store ptr %0, ptr %3, align 8, !tbaa !3
  %4 = tail call noalias dereferenceable_or_null(16) ptr @malloc(i64 noundef 16) #14
  %5 = getelementptr inbounds nuw i8, ptr %4, i64 4
  store i32 0, ptr %5, align 4, !tbaa !12
  store i32 1000, ptr %4, align 8, !tbaa !15
  %6 = tail call noalias dereferenceable_or_null(4000) ptr @malloc(i64 noundef 4000) #14
  %7 = getelementptr inbounds nuw i8, ptr %4, i64 8
  store ptr %6, ptr %7, align 8, !tbaa !16
  %8 = getelementptr inbounds nuw i8, ptr %2, i64 24
  store ptr %4, ptr %8, align 8, !tbaa !17
  ret ptr %2
}